(lp1
S'images/1000.jpg'
p2
aS'images/100208.jpg'
p3
aS'images/100612.jpg'
p4
aS'images/10070.jpg'
p5
aS'images/100895.jpg'
p6
aS'images/100999.jpg'
p7
aS'images/101154.jpg'
p8
aS'images/101236.jpg'
p9
aS'images/10125.jpg'
p10
aS'images/101528.jpg'
p11
a.